;--------------------------------------------------------
; File Created by SDCC : free open source ANSI-C Compiler
; Version 3.5.0 #9253 (Jun 20 2015) (MINGW32)
; This file was generated Wed Nov 13 01:55:33 2019
;--------------------------------------------------------
; PIC port for the 14-bit core
;--------------------------------------------------------
	.file	"ssd.c"
	list	p=16f877a
	radix dec
	include "p16f877a.inc"
;--------------------------------------------------------
; external declarations
;--------------------------------------------------------
	extern	_OS_Init
	extern	_OS_Start
	extern	_OS_Update
	extern	_OS_Set_AP
	extern	_STATUSbits
	extern	_PORTAbits
	extern	_PORTBbits
	extern	_PORTCbits
	extern	_PORTDbits
	extern	_PORTEbits
	extern	_INTCONbits
	extern	_PIR1bits
	extern	_PIR2bits
	extern	_T1CONbits
	extern	_T2CONbits
	extern	_SSPCONbits
	extern	_CCP1CONbits
	extern	_RCSTAbits
	extern	_CCP2CONbits
	extern	_ADCON0bits
	extern	_OPTION_REGbits
	extern	_TRISAbits
	extern	_TRISBbits
	extern	_TRISCbits
	extern	_TRISDbits
	extern	_TRISEbits
	extern	_PIE1bits
	extern	_PIE2bits
	extern	_PCONbits
	extern	_SSPCON2bits
	extern	_SSPSTATbits
	extern	_TXSTAbits
	extern	_CMCONbits
	extern	_CVRCONbits
	extern	_ADCON1bits
	extern	_EECON1bits
	extern	_INDF
	extern	_TMR0
	extern	_PCL
	extern	_STATUS
	extern	_FSR
	extern	_PORTA
	extern	_PORTB
	extern	_PORTC
	extern	_PORTD
	extern	_PORTE
	extern	_PCLATH
	extern	_INTCON
	extern	_PIR1
	extern	_PIR2
	extern	_TMR1
	extern	_TMR1L
	extern	_TMR1H
	extern	_T1CON
	extern	_TMR2
	extern	_T2CON
	extern	_SSPBUF
	extern	_SSPCON
	extern	_CCPR1
	extern	_CCPR1L
	extern	_CCPR1H
	extern	_CCP1CON
	extern	_RCSTA
	extern	_TXREG
	extern	_RCREG
	extern	_CCPR2
	extern	_CCPR2L
	extern	_CCPR2H
	extern	_CCP2CON
	extern	_ADRESH
	extern	_ADCON0
	extern	_OPTION_REG
	extern	_TRISA
	extern	_TRISB
	extern	_TRISC
	extern	_TRISD
	extern	_TRISE
	extern	_PIE1
	extern	_PIE2
	extern	_PCON
	extern	_SSPCON2
	extern	_PR2
	extern	_SSPADD
	extern	_SSPSTAT
	extern	_TXSTA
	extern	_SPBRG
	extern	_CMCON
	extern	_CVRCON
	extern	_ADRESL
	extern	_ADCON1
	extern	_EEDATA
	extern	_EEADR
	extern	_EEDATH
	extern	_EEADRH
	extern	_EECON1
	extern	_EECON2

	extern PSAVE
	extern SSAVE
	extern WSAVE
	extern STK12
	extern STK11
	extern STK10
	extern STK09
	extern STK08
	extern STK07
	extern STK06
	extern STK05
	extern STK04
	extern STK03
	extern STK02
	extern STK01
	extern STK00
;--------------------------------------------------------
; global declarations
;--------------------------------------------------------
	global	_SSD_Buffer_Set
	global	_SSD_Update
	global	_SSD_Init
	global	_ssd_Buffer

;--------------------------------------------------------
; global definitions
;--------------------------------------------------------
;--------------------------------------------------------
; absolute symbol definitions
;--------------------------------------------------------
;--------------------------------------------------------
; compiler-defined variables
;--------------------------------------------------------
UDL_ssd_0	udata
r0x100D	res	1
r0x100A	res	1
r0x100B	res	1
r0x100C	res	1
r0x1009	res	1
_SSD_Update_current_Loop_1_11	res	1
_SSD_Update_speed_1_11	res	1
;--------------------------------------------------------
; initialized data
;--------------------------------------------------------

ID_ssd_0	idata
_ssd_Symbols
	db	0xf7
	db	0xb7
	db	0xb6
	db	0xff


ID_ssd_1	idata
_ssd_Buffer
	db	0x03
	db	0x03
	db	0x03

;--------------------------------------------------------
; overlayable items in internal ram 
;--------------------------------------------------------
;	udata_ovr
;--------------------------------------------------------
; code
;--------------------------------------------------------
code_ssd	code
;***
;  pBlock Stats: dbName = C
;***
;entry:  _SSD_Buffer_Set	;Function start
; 2 exit points
;has an exit
;1 compiler assigned register :
;   r0x1009
;; Starting pCode block
;;; /home/sdcc-builder/build/sdcc-build/orig/sdcc/src/pic14/gen.c:2316:resultRemat *{*
;;; /home/sdcc-builder/build/sdcc-build/orig/sdcc/src/pic14/gen.c:2760:genLabel *{*
;; ***	genLabel  2763
;;; /home/sdcc-builder/build/sdcc-build/orig/sdcc/src/pic14/gen.c:2316:resultRemat *{*
;;; /home/sdcc-builder/build/sdcc-build/orig/sdcc/src/pic14/gen.c:2340:genFunction *{*
;; ***	genFunction  2342 curr label offset=8previous max_key=15 
_SSD_Buffer_Set	;Function start
; 2 exit points
;;; /home/sdcc-builder/build/sdcc-build/orig/sdcc/src/pic14/gen.c:2316:resultRemat *{*
;;; /home/sdcc-builder/build/sdcc-build/orig/sdcc/src/pic14/gen.c:7358:genReceive *{*
;; ***	genReceive  7359
;;	694 register type nRegs=1
;;; /home/sdcc-builder/build/sdcc-build/orig/sdcc/src/pic14/gen.c:1907:assignResultValue *{*
;; ***	assignResultValue  1909
;; 	line = 1911 result -=-, size=0, left AOP_REG=r0x1050, size=1, right -=-, size=0
;; >>> /home/sdcc-builder/build/sdcc-build/orig/sdcc/src/pic14/gen.c:1393:movwf
;;	1109 rIdx = r0x1050 
	.line	54; "ssd.c"	void SSD_Buffer_Set(speed_Level speed_level){
	BANKSEL	r0x1009
	MOVWF	r0x1009
;;; /home/sdcc-builder/build/sdcc-build/orig/sdcc/src/pic14/gen.c:2316:resultRemat *{*
;;; /home/sdcc-builder/build/sdcc-build/orig/sdcc/src/pic14/gen.c:3547:genCmpGt *{*
;; ***	genCmpGt  3548
;;	694 register type nRegs=1
;;; /home/sdcc-builder/build/sdcc-build/orig/sdcc/src/pic14/gen.c:3294:genCmp *{*
;;swapping arguments (AOP_TYPEs 1/2)
;;unsigned compare: left >= lit(0x3=3), size=1
;; >>> /home/sdcc-builder/build/sdcc-build/orig/sdcc/src/pic14/gen.c:3265:pic14_mov2w_regOrLit
	.line	55; "ssd.c"	switch(speed_level){
	MOVLW	0x03
;; >>> /home/sdcc-builder/build/sdcc-build/orig/sdcc/src/pic14/gen.c:3432:genCmp
;;	1109 rIdx = r0x1050 
	SUBWF	r0x1009,W
;;; /home/sdcc-builder/build/sdcc-build/orig/sdcc/src/pic14/gen.c:3237:genSkipc *{*
;; >>> /home/sdcc-builder/build/sdcc-build/orig/sdcc/src/pic14/gen.c:3242:genSkipc
	BTFSC	STATUS,0
;; >>> /home/sdcc-builder/build/sdcc-build/orig/sdcc/src/pic14/gen.c:3246:genSkipc
;; ***	popGetLabel  key=6, label offset 27
	GOTO	_00133_DS_
;;genSkipc:3247: created from rifx:027A5DF4
;;; /home/sdcc-builder/build/sdcc-build/orig/sdcc/src/pic14/gen.c:2316:resultRemat *{*
;;; /home/sdcc-builder/build/sdcc-build/orig/sdcc/src/pic14/gen.c:2316:resultRemat *{*
;;; /home/sdcc-builder/build/sdcc-build/orig/sdcc/src/pic14/gen.c:7071:genJumpTab *{*
;; ***	genJumpTab  7072
;;	694 register type nRegs=1
;; >>> /home/sdcc-builder/build/sdcc-build/orig/sdcc/src/pic14/gen.c:7087:genJumpTab
;; ***	popGetLabel  key=12, label offset 27
	MOVLW	HIGH(_00139_DS_)
;; >>> /home/sdcc-builder/build/sdcc-build/orig/sdcc/src/pic14/gen.c:7088:genJumpTab
	BANKSEL	PCLATH
	MOVWF	PCLATH
;; >>> /home/sdcc-builder/build/sdcc-build/orig/sdcc/src/pic14/gen.c:7089:genJumpTab
;; ***	popGetLabel  key=12, label offset 27
	MOVLW	_00139_DS_
;; >>> /home/sdcc-builder/build/sdcc-build/orig/sdcc/src/pic14/gen.c:7090:genJumpTab
;;	1109 rIdx = r0x1050 
	BANKSEL	r0x1009
	ADDWF	r0x1009,W
;; >>> /home/sdcc-builder/build/sdcc-build/orig/sdcc/src/pic14/gen.c:7091:genJumpTab
	BTFSS	STATUS,0
	GOTO	_00001_DS_
;; >>> /home/sdcc-builder/build/sdcc-build/orig/sdcc/src/pic14/gen.c:7092:genJumpTab
	BANKSEL	PCLATH
	INCF	PCLATH,F
;; >>> /home/sdcc-builder/build/sdcc-build/orig/sdcc/src/pic14/gen.c:7093:genJumpTab
_00001_DS_
	MOVWF	PCL
;; >>> /home/sdcc-builder/build/sdcc-build/orig/sdcc/src/pic14/gen.c:7102:genJumpTab
;; ***	popGetLabel  key=3, label offset 27
_00139_DS_
	GOTO	_00130_DS_
;; >>> /home/sdcc-builder/build/sdcc-build/orig/sdcc/src/pic14/gen.c:7102:genJumpTab
;; ***	popGetLabel  key=2, label offset 27
	GOTO	_00129_DS_
;; >>> /home/sdcc-builder/build/sdcc-build/orig/sdcc/src/pic14/gen.c:7102:genJumpTab
;; ***	popGetLabel  key=1, label offset 27
	GOTO	_00128_DS_
;;; /home/sdcc-builder/build/sdcc-build/orig/sdcc/src/pic14/gen.c:2316:resultRemat *{*
;;; /home/sdcc-builder/build/sdcc-build/orig/sdcc/src/pic14/gen.c:2760:genLabel *{*
;; ***	genLabel  2763
;;; /home/sdcc-builder/build/sdcc-build/orig/sdcc/src/pic14/gen.c:2316:resultRemat *{*
;;; /home/sdcc-builder/build/sdcc-build/orig/sdcc/src/pic14/gen.c:2316:resultRemat *{*
;;; /home/sdcc-builder/build/sdcc-build/orig/sdcc/src/pic14/gen.c:2316:resultRemat *{*
;;; /home/sdcc-builder/build/sdcc-build/orig/sdcc/src/pic14/gen.c:6686:genPointerSet *{*
;; ***	genPointerSet  6687
;;; /home/sdcc-builder/build/sdcc-build/orig/sdcc/src/pic14/gen.c:6505:genNearPointerSet *{*
;; ***	genNearPointerSet  6506
;;	613
;;	aopForRemat 392
;;	418: rname _ssd_Buffer, val 2, const = 0
;;; /home/sdcc-builder/build/sdcc-build/orig/sdcc/src/pic14/gen.c:6443:genDataPointerSet *{*
;; ***	genDataPointerSet  6444
;;/home/sdcc-builder/build/sdcc-build/orig/sdcc/src/pic14/gen.c:6461: size=0, offset=0, AOP_TYPE(res)=8
;; >>> /home/sdcc-builder/build/sdcc-build/orig/sdcc/src/pic14/gen.c:6470:genDataPointerSet
_00128_DS_
	.line	57; "ssd.c"	ssd_Buffer[max] = max;
	MOVLW	0x02
;; >>> /home/sdcc-builder/build/sdcc-build/orig/sdcc/src/pic14/gen.c:6471:genDataPointerSet
;;	popGet AOP_PCODE (PO_IMMEDIATE + 0) 1130 _ssd_Buffer
	BANKSEL	_ssd_Buffer
	MOVWF	(_ssd_Buffer + 2)
;;; /home/sdcc-builder/build/sdcc-build/orig/sdcc/src/pic14/gen.c:2316:resultRemat *{*
;;; /home/sdcc-builder/build/sdcc-build/orig/sdcc/src/pic14/gen.c:2778:genGoto *{*
;; >>> /home/sdcc-builder/build/sdcc-build/orig/sdcc/src/pic14/gen.c:2780:genGoto
;; ***	popGetLabel  key=6, label offset 27
	.line	58; "ssd.c"	break;
	GOTO	_00133_DS_
;;; /home/sdcc-builder/build/sdcc-build/orig/sdcc/src/pic14/gen.c:2316:resultRemat *{*
;;; /home/sdcc-builder/build/sdcc-build/orig/sdcc/src/pic14/gen.c:2760:genLabel *{*
;; ***	genLabel  2763
;;; /home/sdcc-builder/build/sdcc-build/orig/sdcc/src/pic14/gen.c:2316:resultRemat *{*
;;; /home/sdcc-builder/build/sdcc-build/orig/sdcc/src/pic14/gen.c:2316:resultRemat *{*
;;; /home/sdcc-builder/build/sdcc-build/orig/sdcc/src/pic14/gen.c:2316:resultRemat *{*
;;; /home/sdcc-builder/build/sdcc-build/orig/sdcc/src/pic14/gen.c:6686:genPointerSet *{*
;; ***	genPointerSet  6687
;;; /home/sdcc-builder/build/sdcc-build/orig/sdcc/src/pic14/gen.c:6505:genNearPointerSet *{*
;; ***	genNearPointerSet  6506
;;	613
;;	aopForRemat 392
;;	418: rname _ssd_Buffer, val 2, const = 0
;;; /home/sdcc-builder/build/sdcc-build/orig/sdcc/src/pic14/gen.c:6443:genDataPointerSet *{*
;; ***	genDataPointerSet  6444
;;/home/sdcc-builder/build/sdcc-build/orig/sdcc/src/pic14/gen.c:6461: size=0, offset=0, AOP_TYPE(res)=8
;; >>> /home/sdcc-builder/build/sdcc-build/orig/sdcc/src/pic14/gen.c:6470:genDataPointerSet
_00129_DS_
	.line	60; "ssd.c"	ssd_Buffer[max] = null;
	MOVLW	0x03
;; >>> /home/sdcc-builder/build/sdcc-build/orig/sdcc/src/pic14/gen.c:6471:genDataPointerSet
;;	popGet AOP_PCODE (PO_IMMEDIATE + 0) 1130 _ssd_Buffer
	BANKSEL	_ssd_Buffer
	MOVWF	(_ssd_Buffer + 2)
;;; /home/sdcc-builder/build/sdcc-build/orig/sdcc/src/pic14/gen.c:2316:resultRemat *{*
;;; /home/sdcc-builder/build/sdcc-build/orig/sdcc/src/pic14/gen.c:2316:resultRemat *{*
;;; /home/sdcc-builder/build/sdcc-build/orig/sdcc/src/pic14/gen.c:6686:genPointerSet *{*
;; ***	genPointerSet  6687
;;; /home/sdcc-builder/build/sdcc-build/orig/sdcc/src/pic14/gen.c:6505:genNearPointerSet *{*
;; ***	genNearPointerSet  6506
;;	613
;;	aopForRemat 392
;;	418: rname _ssd_Buffer, val 1, const = 0
;;; /home/sdcc-builder/build/sdcc-build/orig/sdcc/src/pic14/gen.c:6443:genDataPointerSet *{*
;; ***	genDataPointerSet  6444
;;/home/sdcc-builder/build/sdcc-build/orig/sdcc/src/pic14/gen.c:6461: size=0, offset=0, AOP_TYPE(res)=8
;; >>> /home/sdcc-builder/build/sdcc-build/orig/sdcc/src/pic14/gen.c:6470:genDataPointerSet
	.line	61; "ssd.c"	ssd_Buffer[mid] = mid;
	MOVLW	0x01
;; >>> /home/sdcc-builder/build/sdcc-build/orig/sdcc/src/pic14/gen.c:6471:genDataPointerSet
;;	popGet AOP_PCODE (PO_IMMEDIATE + 0) 1130 _ssd_Buffer
	MOVWF	(_ssd_Buffer + 1)
;;; /home/sdcc-builder/build/sdcc-build/orig/sdcc/src/pic14/gen.c:2316:resultRemat *{*
;;; /home/sdcc-builder/build/sdcc-build/orig/sdcc/src/pic14/gen.c:6686:genPointerSet *{*
;; ***	genPointerSet  6687
;;; /home/sdcc-builder/build/sdcc-build/orig/sdcc/src/pic14/gen.c:6505:genNearPointerSet *{*
;; ***	genNearPointerSet  6506
;;	613
;;	aopForRemat 392
;;	418: rname _ssd_Buffer, val 0, const = 0
;;; /home/sdcc-builder/build/sdcc-build/orig/sdcc/src/pic14/gen.c:6443:genDataPointerSet *{*
;; ***	genDataPointerSet  6444
;;/home/sdcc-builder/build/sdcc-build/orig/sdcc/src/pic14/gen.c:6461: size=0, offset=0, AOP_TYPE(res)=8
;; >>> /home/sdcc-builder/build/sdcc-build/orig/sdcc/src/pic14/gen.c:6475:genDataPointerSet
;;	popGet AOP_PCODE (PO_IMMEDIATE + 0) 1130 _ssd_Buffer
	.line	62; "ssd.c"	ssd_Buffer[min] = min;
	CLRF	(_ssd_Buffer + 0)
;;; /home/sdcc-builder/build/sdcc-build/orig/sdcc/src/pic14/gen.c:2316:resultRemat *{*
;;; /home/sdcc-builder/build/sdcc-build/orig/sdcc/src/pic14/gen.c:2778:genGoto *{*
;; >>> /home/sdcc-builder/build/sdcc-build/orig/sdcc/src/pic14/gen.c:2780:genGoto
;; ***	popGetLabel  key=6, label offset 27
	.line	63; "ssd.c"	break;
	GOTO	_00133_DS_
;;; /home/sdcc-builder/build/sdcc-build/orig/sdcc/src/pic14/gen.c:2316:resultRemat *{*
;;; /home/sdcc-builder/build/sdcc-build/orig/sdcc/src/pic14/gen.c:2760:genLabel *{*
;; ***	genLabel  2763
;;; /home/sdcc-builder/build/sdcc-build/orig/sdcc/src/pic14/gen.c:2316:resultRemat *{*
;;; /home/sdcc-builder/build/sdcc-build/orig/sdcc/src/pic14/gen.c:2316:resultRemat *{*
;;; /home/sdcc-builder/build/sdcc-build/orig/sdcc/src/pic14/gen.c:2316:resultRemat *{*
;;; /home/sdcc-builder/build/sdcc-build/orig/sdcc/src/pic14/gen.c:6686:genPointerSet *{*
;; ***	genPointerSet  6687
;;; /home/sdcc-builder/build/sdcc-build/orig/sdcc/src/pic14/gen.c:6505:genNearPointerSet *{*
;; ***	genNearPointerSet  6506
;;	613
;;	aopForRemat 392
;;	418: rname _ssd_Buffer, val 2, const = 0
;;; /home/sdcc-builder/build/sdcc-build/orig/sdcc/src/pic14/gen.c:6443:genDataPointerSet *{*
;; ***	genDataPointerSet  6444
;;/home/sdcc-builder/build/sdcc-build/orig/sdcc/src/pic14/gen.c:6461: size=0, offset=0, AOP_TYPE(res)=8
;; >>> /home/sdcc-builder/build/sdcc-build/orig/sdcc/src/pic14/gen.c:6470:genDataPointerSet
_00130_DS_
	.line	65; "ssd.c"	ssd_Buffer[max] = null;
	MOVLW	0x03
;; >>> /home/sdcc-builder/build/sdcc-build/orig/sdcc/src/pic14/gen.c:6471:genDataPointerSet
;;	popGet AOP_PCODE (PO_IMMEDIATE + 0) 1130 _ssd_Buffer
	BANKSEL	_ssd_Buffer
	MOVWF	(_ssd_Buffer + 2)
;;; /home/sdcc-builder/build/sdcc-build/orig/sdcc/src/pic14/gen.c:2316:resultRemat *{*
;;; /home/sdcc-builder/build/sdcc-build/orig/sdcc/src/pic14/gen.c:2316:resultRemat *{*
;;; /home/sdcc-builder/build/sdcc-build/orig/sdcc/src/pic14/gen.c:6686:genPointerSet *{*
;; ***	genPointerSet  6687
;;; /home/sdcc-builder/build/sdcc-build/orig/sdcc/src/pic14/gen.c:6505:genNearPointerSet *{*
;; ***	genNearPointerSet  6506
;;	613
;;	aopForRemat 392
;;	418: rname _ssd_Buffer, val 1, const = 0
;;; /home/sdcc-builder/build/sdcc-build/orig/sdcc/src/pic14/gen.c:6443:genDataPointerSet *{*
;; ***	genDataPointerSet  6444
;;/home/sdcc-builder/build/sdcc-build/orig/sdcc/src/pic14/gen.c:6461: size=0, offset=0, AOP_TYPE(res)=8
;; >>> /home/sdcc-builder/build/sdcc-build/orig/sdcc/src/pic14/gen.c:6470:genDataPointerSet
	.line	66; "ssd.c"	ssd_Buffer[mid] = null;
	MOVLW	0x03
;; >>> /home/sdcc-builder/build/sdcc-build/orig/sdcc/src/pic14/gen.c:6471:genDataPointerSet
;;	popGet AOP_PCODE (PO_IMMEDIATE + 0) 1130 _ssd_Buffer
	MOVWF	(_ssd_Buffer + 1)
;;; /home/sdcc-builder/build/sdcc-build/orig/sdcc/src/pic14/gen.c:2316:resultRemat *{*
;;; /home/sdcc-builder/build/sdcc-build/orig/sdcc/src/pic14/gen.c:6686:genPointerSet *{*
;; ***	genPointerSet  6687
;;; /home/sdcc-builder/build/sdcc-build/orig/sdcc/src/pic14/gen.c:6505:genNearPointerSet *{*
;; ***	genNearPointerSet  6506
;;	613
;;	aopForRemat 392
;;	418: rname _ssd_Buffer, val 0, const = 0
;;; /home/sdcc-builder/build/sdcc-build/orig/sdcc/src/pic14/gen.c:6443:genDataPointerSet *{*
;; ***	genDataPointerSet  6444
;;/home/sdcc-builder/build/sdcc-build/orig/sdcc/src/pic14/gen.c:6461: size=0, offset=0, AOP_TYPE(res)=8
;; >>> /home/sdcc-builder/build/sdcc-build/orig/sdcc/src/pic14/gen.c:6475:genDataPointerSet
;;	popGet AOP_PCODE (PO_IMMEDIATE + 0) 1130 _ssd_Buffer
	.line	67; "ssd.c"	ssd_Buffer[min] = min;
	CLRF	(_ssd_Buffer + 0)
;;; /home/sdcc-builder/build/sdcc-build/orig/sdcc/src/pic14/gen.c:2316:resultRemat *{*
;;; /home/sdcc-builder/build/sdcc-build/orig/sdcc/src/pic14/gen.c:2760:genLabel *{*
;; ***	genLabel  2763
;;; /home/sdcc-builder/build/sdcc-build/orig/sdcc/src/pic14/gen.c:2316:resultRemat *{*
;;; /home/sdcc-builder/build/sdcc-build/orig/sdcc/src/pic14/gen.c:2528:genEndFunction *{*
;; ***	genEndFunction  2530
_00133_DS_
	.line	71; "ssd.c"	}
	RETURN	
; exit point of _SSD_Buffer_Set

;***
;  pBlock Stats: dbName = C
;***
;entry:  _SSD_Update	;Function start
; 0 exit points
;3 compiler assigned registers:
;   r0x100A
;   r0x100B
;   r0x100C
;; Starting pCode block
;;; /home/sdcc-builder/build/sdcc-build/orig/sdcc/src/pic14/gen.c:2316:resultRemat *{*
;;; /home/sdcc-builder/build/sdcc-build/orig/sdcc/src/pic14/gen.c:2760:genLabel *{*
;; ***	genLabel  2763
;;; /home/sdcc-builder/build/sdcc-build/orig/sdcc/src/pic14/gen.c:2316:resultRemat *{*
;;; /home/sdcc-builder/build/sdcc-build/orig/sdcc/src/pic14/gen.c:2340:genFunction *{*
;; ***	genFunction  2342 curr label offset=4previous max_key=0 
_SSD_Update	;Function start
; 0 exit points
;;; /home/sdcc-builder/build/sdcc-build/orig/sdcc/src/pic14/gen.c:2316:resultRemat *{*
;; ***	genPlus  611
;;; /home/sdcc-builder/build/sdcc-build/orig/sdcc/src/pic14/genarith.c:612:genPlus *{*
;; ***	aopForSym 315
;;	327 sym->rname = _SSD_Update_current_Loop_1_11, size = 1
;;	575
;; 	line = 618 result AOP_DIR=_SSD_Update_current_Loop_1_11, size=1, left AOP_DIR=_SSD_Update_current_Loop_1_11, size=1, right AOP_LIT=0x01, size=1
;;; /home/sdcc-builder/build/sdcc-build/orig/sdcc/src/pic14/genarith.c:142:genPlusIncr *{*
;; ***	genPlusIncr  144
;; 	result AOP_DIR, left AOP_DIR, right AOP_LIT
;; 	genPlusIncr  156
;; >>> /home/sdcc-builder/build/sdcc-build/orig/sdcc/src/pic14/genarith.c:168:genPlusIncr
;;	1009
;;	1028  _SSD_Update_current_Loop_1_11   offset=0
	.line	29; "ssd.c"	current_Loop += 1;
	BANKSEL	_SSD_Update_current_Loop_1_11
	INCF	_SSD_Update_current_Loop_1_11,F
;;; /home/sdcc-builder/build/sdcc-build/orig/sdcc/src/pic14/gen.c:2316:resultRemat *{*
;;; /home/sdcc-builder/build/sdcc-build/orig/sdcc/src/pic14/gen.c:3583:genCmpLt *{*
;; ***	genCmpLt  3584
;; ***	aopForSym 315
;;	327 sym->rname = _SSD_Update_current_Loop_1_11, size = 1
;;; /home/sdcc-builder/build/sdcc-build/orig/sdcc/src/pic14/gen.c:3294:genCmp *{*
;;unsigned compare: left < lit(0x19=25), size=1
;; >>> /home/sdcc-builder/build/sdcc-build/orig/sdcc/src/pic14/gen.c:3265:pic14_mov2w_regOrLit
	.line	30; "ssd.c"	if(current_Loop < SSD_LOOP){
	MOVLW	0x19
;; >>> /home/sdcc-builder/build/sdcc-build/orig/sdcc/src/pic14/gen.c:3432:genCmp
;;	1009
;;	1028  _SSD_Update_current_Loop_1_11   offset=0
	.line	31; "ssd.c"	return;
	SUBWF	_SSD_Update_current_Loop_1_11,W
	.line	33; "ssd.c"	current_Loop = 0;
	BTFSS	STATUS,0
	GOTO	_00113_DS_
	CLRF	_SSD_Update_current_Loop_1_11
	.line	36; "ssd.c"	GPIO_WritePortPin(GPIO_PORTD_DATA, GPIO_PIN_0, SSD_OFF);
	BANKSEL	_PORTD
	MOVF	_PORTD,W
;; >>> /home/sdcc-builder/build/sdcc-build/orig/sdcc/src/pic14/gen.c:7278:genCast
;;	1109 rIdx = r0x104C 
	BANKSEL	r0x100A
	MOVWF	r0x100A
;;; /home/sdcc-builder/build/sdcc-build/orig/sdcc/src/pic14/gen.c:2316:resultRemat *{*
;;; /home/sdcc-builder/build/sdcc-build/orig/sdcc/src/pic14/gen.c:3919:genAnd *{*
;; ***	genAnd  3920
;;	694 register type nRegs=1
;; ***	aopForSym 315
;;	327 sym->rname = _PORTD, size = 1
;; 	line = 3955 result AOP_DIR=_PORTD, size=1, left AOP_REG=r0x104C, size=1, right AOP_LIT=0xfe, size=1
;; >>> /home/sdcc-builder/build/sdcc-build/orig/sdcc/src/pic14/gen.c:4190:genAnd
	MOVLW	0xfe
;; >>> /home/sdcc-builder/build/sdcc-build/orig/sdcc/src/pic14/gen.c:4191:genAnd
;;	1109 rIdx = r0x104C 
	ANDWF	r0x100A,W
;; >>> /home/sdcc-builder/build/sdcc-build/orig/sdcc/src/pic14/gen.c:4192:genAnd
;;	1009
;;	1028  _PORTD   offset=0
	BANKSEL	_PORTD
	MOVWF	_PORTD
;;; /home/sdcc-builder/build/sdcc-build/orig/sdcc/src/pic14/gen.c:2316:resultRemat *{*
;;; /home/sdcc-builder/build/sdcc-build/orig/sdcc/src/pic14/gen.c:7120:genCast *{*
;; ***	genCast  7121
;; ***	aopForSym 315
;;	327 sym->rname = _PORTD, size = 1
;;	694 register type nRegs=1
;; 	line = 7129 result AOP_REG=r0x104C, size=1, left -=-, size=0, right AOP_DIR=_PORTD, size=1
;; ***	genCast  7253
;; >>> /home/sdcc-builder/build/sdcc-build/orig/sdcc/src/pic14/gen.c:7277:genCast
;;	1009
;;	1028  _PORTD   offset=0
	.line	37; "ssd.c"	GPIO_WritePortPin(GPIO_PORTD_DATA, GPIO_PIN_1, SSD_OFF);
	MOVF	_PORTD,W
;; >>> /home/sdcc-builder/build/sdcc-build/orig/sdcc/src/pic14/gen.c:7278:genCast
;;	1109 rIdx = r0x104C 
	BANKSEL	r0x100A
	MOVWF	r0x100A
;;; /home/sdcc-builder/build/sdcc-build/orig/sdcc/src/pic14/gen.c:2316:resultRemat *{*
;;; /home/sdcc-builder/build/sdcc-build/orig/sdcc/src/pic14/gen.c:3919:genAnd *{*
;; ***	genAnd  3920
;;	694 register type nRegs=1
;; ***	aopForSym 315
;;	327 sym->rname = _PORTD, size = 1
;; 	line = 3955 result AOP_DIR=_PORTD, size=1, left AOP_REG=r0x104C, size=1, right AOP_LIT=0xfd, size=1
;; >>> /home/sdcc-builder/build/sdcc-build/orig/sdcc/src/pic14/gen.c:4190:genAnd
	MOVLW	0xfd
;; >>> /home/sdcc-builder/build/sdcc-build/orig/sdcc/src/pic14/gen.c:4191:genAnd
;;	1109 rIdx = r0x104C 
	ANDWF	r0x100A,W
;; >>> /home/sdcc-builder/build/sdcc-build/orig/sdcc/src/pic14/gen.c:4192:genAnd
;;	1009
;;	1028  _PORTD   offset=0
	BANKSEL	_PORTD
	MOVWF	_PORTD
;;; /home/sdcc-builder/build/sdcc-build/orig/sdcc/src/pic14/gen.c:2316:resultRemat *{*
;;; /home/sdcc-builder/build/sdcc-build/orig/sdcc/src/pic14/gen.c:7120:genCast *{*
;; ***	genCast  7121
;; ***	aopForSym 315
;;	327 sym->rname = _PORTD, size = 1
;;	694 register type nRegs=1
;; 	line = 7129 result AOP_REG=r0x104C, size=1, left -=-, size=0, right AOP_DIR=_PORTD, size=1
;; ***	genCast  7253
;; >>> /home/sdcc-builder/build/sdcc-build/orig/sdcc/src/pic14/gen.c:7277:genCast
;;	1009
;;	1028  _PORTD   offset=0
	.line	38; "ssd.c"	GPIO_WritePortPin(GPIO_PORTD_DATA, GPIO_PIN_2, SSD_OFF);
	MOVF	_PORTD,W
;; >>> /home/sdcc-builder/build/sdcc-build/orig/sdcc/src/pic14/gen.c:7278:genCast
;;	1109 rIdx = r0x104C 
	BANKSEL	r0x100A
	MOVWF	r0x100A
;;; /home/sdcc-builder/build/sdcc-build/orig/sdcc/src/pic14/gen.c:2316:resultRemat *{*
;;; /home/sdcc-builder/build/sdcc-build/orig/sdcc/src/pic14/gen.c:3919:genAnd *{*
;; ***	genAnd  3920
;;	694 register type nRegs=1
;; ***	aopForSym 315
;;	327 sym->rname = _PORTD, size = 1
;; 	line = 3955 result AOP_DIR=_PORTD, size=1, left AOP_REG=r0x104C, size=1, right AOP_LIT=0xfb, size=1
;; >>> /home/sdcc-builder/build/sdcc-build/orig/sdcc/src/pic14/gen.c:4190:genAnd
	MOVLW	0xfb
;; >>> /home/sdcc-builder/build/sdcc-build/orig/sdcc/src/pic14/gen.c:4191:genAnd
;;	1109 rIdx = r0x104C 
	ANDWF	r0x100A,W
;; >>> /home/sdcc-builder/build/sdcc-build/orig/sdcc/src/pic14/gen.c:4192:genAnd
;;	1009
;;	1028  _PORTD   offset=0
	BANKSEL	_PORTD
	MOVWF	_PORTD
;;; /home/sdcc-builder/build/sdcc-build/orig/sdcc/src/pic14/gen.c:2316:resultRemat *{*
;;; /home/sdcc-builder/build/sdcc-build/orig/sdcc/src/pic14/gen.c:2316:resultRemat *{*
;;; /home/sdcc-builder/build/sdcc-build/orig/sdcc/src/pic14/gen.c:2316:resultRemat *{*
;; ***	genPlus  611
;;; /home/sdcc-builder/build/sdcc-build/orig/sdcc/src/pic14/genarith.c:612:genPlus *{*
;;	613
;;	aopForRemat 392
;;	418: rname _ssd_Buffer, val 0, const = 0
;; ***	aopForSym 315
;;	327 sym->rname = _SSD_Update_speed_1_11, size = 1
;;	694 register type nRegs=2
;;	833: aopGet AOP_PCODE type PO_IMMEDIATE
;;	_ssd_Buffer
;; 	line = 618 result AOP_REG=r0x104C, size=2, left AOP_PCODE=_ssd_Buffer, size=2, right AOP_DIR=_SSD_Update_speed_1_11, size=1
;;; /home/sdcc-builder/build/sdcc-build/orig/sdcc/src/pic14/genarith.c:142:genPlusIncr *{*
;; ***	genPlusIncr  144
;; 	result AOP_REG, left AOP_PCODE, right AOP_DIR
;; ***	genPlus  717
;;	833: aopGet AOP_PCODE type PO_IMMEDIATE
;;	_ssd_Buffer
;; >>> /home/sdcc-builder/build/sdcc-build/orig/sdcc/src/pic14/genarith.c:726:genPlus
;;	1009
;;	1028  _SSD_Update_speed_1_11   offset=0
	.line	41; "ssd.c"	GPIO_WritePort(GPIO_PORTB_DATA, ssd_Symbols[ssd_Buffer[speed]]);
	BANKSEL	_SSD_Update_speed_1_11
	MOVF	_SSD_Update_speed_1_11,W
;; >>> /home/sdcc-builder/build/sdcc-build/orig/sdcc/src/pic14/genarith.c:735:genPlus
	ADDLW	(_ssd_Buffer + 0)
;; >>> /home/sdcc-builder/build/sdcc-build/orig/sdcc/src/pic14/genarith.c:736:genPlus
;;	1109 rIdx = r0x104C 
	BANKSEL	r0x100A
	MOVWF	r0x100A
;; >>> /home/sdcc-builder/build/sdcc-build/orig/sdcc/src/pic14/genarith.c:799:genPlus
	MOVLW	high (_ssd_Buffer + 0)
;; >>> /home/sdcc-builder/build/sdcc-build/orig/sdcc/src/pic14/genarith.c:800:genPlus
	BTFSC	STATUS,0
;; >>> /home/sdcc-builder/build/sdcc-build/orig/sdcc/src/pic14/genarith.c:801:genPlus
	ADDLW	0x01
;; >>> /home/sdcc-builder/build/sdcc-build/orig/sdcc/src/pic14/genarith.c:802:genPlus
;;	1109 rIdx = r0x104D 
	MOVWF	r0x100B
;;; /home/sdcc-builder/build/sdcc-build/orig/sdcc/src/pic14/gen.c:2316:resultRemat *{*
;;; /home/sdcc-builder/build/sdcc-build/orig/sdcc/src/pic14/gen.c:6162:genPointerGet *{*
;; ***	genPointerGet  6163
;;; /home/sdcc-builder/build/sdcc-build/orig/sdcc/src/pic14/gen.c:5944:genNearPointerGet *{*
;; ***	genNearPointerGet  5945
;;	694 register type nRegs=2
;; ***	genNearPointerGet  5961
;;	694 register type nRegs=1
;;; /home/sdcc-builder/build/sdcc-build/orig/sdcc/src/pic14/gen.c:1343:mov2w_op *{*
;; ***	mov2w  1381  offset=0
;; >>> /home/sdcc-builder/build/sdcc-build/orig/sdcc/src/pic14/gen.c:1386:mov2w
;;	1109 rIdx = r0x104C 
	MOVF	r0x100A,W
;; >>> /home/sdcc-builder/build/sdcc-build/orig/sdcc/src/pic14/gen.c:5602:setup_fsr
	BANKSEL	FSR
	MOVWF	FSR
;;; /home/sdcc-builder/build/sdcc-build/orig/sdcc/src/pic14/gen.c:5553:SetIrp *{*
;; >>> /home/sdcc-builder/build/sdcc-build/orig/sdcc/src/pic14/gen.c:5580:SetIrp
	BCF	STATUS,7
;; >>> /home/sdcc-builder/build/sdcc-build/orig/sdcc/src/pic14/gen.c:5583:SetIrp
	BANKSEL	r0x100B
	BTFSC	r0x100B,0
;; >>> /home/sdcc-builder/build/sdcc-build/orig/sdcc/src/pic14/gen.c:5584:SetIrp
	BSF	STATUS,7
;; ***	genNearPointerGet  5988
;; >>> /home/sdcc-builder/build/sdcc-build/orig/sdcc/src/pic14/gen.c:5995:genNearPointerGet
	BANKSEL	INDF
	MOVF	INDF,W
;; >>> /home/sdcc-builder/build/sdcc-build/orig/sdcc/src/pic14/gen.c:6002:genNearPointerGet
;;	1109 rIdx = r0x104E 
	BANKSEL	r0x100C
	MOVWF	r0x100C
	ADDLW	(_ssd_Symbols + 0)
;; >>> /home/sdcc-builder/build/sdcc-build/orig/sdcc/src/pic14/genarith.c:736:genPlus
;;	1109 rIdx = r0x104C 
	MOVWF	r0x100A
;; >>> /home/sdcc-builder/build/sdcc-build/orig/sdcc/src/pic14/genarith.c:799:genPlus
	MOVLW	high (_ssd_Symbols + 0)
;; >>> /home/sdcc-builder/build/sdcc-build/orig/sdcc/src/pic14/genarith.c:800:genPlus
	BTFSC	STATUS,0
;; >>> /home/sdcc-builder/build/sdcc-build/orig/sdcc/src/pic14/genarith.c:801:genPlus
	ADDLW	0x01
;; >>> /home/sdcc-builder/build/sdcc-build/orig/sdcc/src/pic14/genarith.c:802:genPlus
;;	1109 rIdx = r0x104D 
	MOVWF	r0x100B
;;; /home/sdcc-builder/build/sdcc-build/orig/sdcc/src/pic14/gen.c:2316:resultRemat *{*
;;; /home/sdcc-builder/build/sdcc-build/orig/sdcc/src/pic14/gen.c:6162:genPointerGet *{*
;; ***	genPointerGet  6163
;;; /home/sdcc-builder/build/sdcc-build/orig/sdcc/src/pic14/gen.c:5944:genNearPointerGet *{*
;; ***	genNearPointerGet  5945
;;	694 register type nRegs=2
;; ***	genNearPointerGet  5961
;; ***	aopForSym 315
;;	327 sym->rname = _PORTB, size = 1
;;; /home/sdcc-builder/build/sdcc-build/orig/sdcc/src/pic14/gen.c:1343:mov2w_op *{*
;; ***	mov2w  1381  offset=0
;; >>> /home/sdcc-builder/build/sdcc-build/orig/sdcc/src/pic14/gen.c:1386:mov2w
;;	1109 rIdx = r0x104C 
	MOVF	r0x100A,W
;; >>> /home/sdcc-builder/build/sdcc-build/orig/sdcc/src/pic14/gen.c:5602:setup_fsr
	BANKSEL	FSR
	MOVWF	FSR
;;; /home/sdcc-builder/build/sdcc-build/orig/sdcc/src/pic14/gen.c:5553:SetIrp *{*
;; >>> /home/sdcc-builder/build/sdcc-build/orig/sdcc/src/pic14/gen.c:5580:SetIrp
	BCF	STATUS,7
;; >>> /home/sdcc-builder/build/sdcc-build/orig/sdcc/src/pic14/gen.c:5583:SetIrp
	BANKSEL	r0x100B
	BTFSC	r0x100B,0
;; >>> /home/sdcc-builder/build/sdcc-build/orig/sdcc/src/pic14/gen.c:5584:SetIrp
	BSF	STATUS,7
;; ***	genNearPointerGet  5988
;; >>> /home/sdcc-builder/build/sdcc-build/orig/sdcc/src/pic14/gen.c:5995:genNearPointerGet
	BANKSEL	INDF
	MOVF	INDF,W
;; >>> /home/sdcc-builder/build/sdcc-build/orig/sdcc/src/pic14/gen.c:6002:genNearPointerGet
;;	1009
;;	1028  _PORTB   offset=0
	MOVWF	_PORTB
;;; /home/sdcc-builder/build/sdcc-build/orig/sdcc/src/pic14/gen.c:2316:resultRemat *{*
;;; /home/sdcc-builder/build/sdcc-build/orig/sdcc/src/pic14/gen.c:5418:genGenericShift *{*
;; ***	genGenericShift  5421
;; ***	aopForSym 315
;;	327 sym->rname = _SSD_Update_speed_1_11, size = 1
;;	694 register type nRegs=1
;; ***	mov2w  1381  offset=0
;; >>> /home/sdcc-builder/build/sdcc-build/orig/sdcc/src/pic14/gen.c:1384:mov2w
	.line	44; "ssd.c"	GPIO_WritePortPin(GPIO_PORTD_DATA, speed, SSD_ON);
	MOVLW	0x01
;; >>> /home/sdcc-builder/build/sdcc-build/orig/sdcc/src/pic14/gen.c:1393:movwf
;;	1109 rIdx = r0x104C 
	BANKSEL	r0x100A
	MOVWF	r0x100A
;; ***	addSign  861
;;; /home/sdcc-builder/build/sdcc-build/orig/sdcc/src/pic14/genarith.c:862:addSign *{*
;; ***	mov2w  1381  offset=0
;; >>> /home/sdcc-builder/build/sdcc-build/orig/sdcc/src/pic14/gen.c:1386:mov2w
;;	1009
;;	1028  _SSD_Update_speed_1_11   offset=0
	BANKSEL	_SSD_Update_speed_1_11
	MOVF	_SSD_Update_speed_1_11,W
;; >>> /home/sdcc-builder/build/sdcc-build/orig/sdcc/src/pic14/gen.c:5492:genGenericShift
	SUBLW	0x00
;; >>> /home/sdcc-builder/build/sdcc-build/orig/sdcc/src/pic14/gen.c:5494:genGenericShift
	BTFSC	STATUS,2
;; >>> /home/sdcc-builder/build/sdcc-build/orig/sdcc/src/pic14/gen.c:5495:genGenericShift
;; ***	popGetLabel  key=15, label offset 8
	GOTO	_00123_DS_
;;; /home/sdcc-builder/build/sdcc-build/orig/sdcc/src/pic14/gen.c:5369:genMultiAsm *{*
;; ***	genMultiAsm  5370
;; >>> /home/sdcc-builder/build/sdcc-build/orig/sdcc/src/pic14/gen.c:5387:genMultiAsm
;;	1109 rIdx = r0x104C 
_00122_DS_
	BANKSEL	r0x100A
	RLF	r0x100A,F
;; >>> /home/sdcc-builder/build/sdcc-build/orig/sdcc/src/pic14/gen.c:5501:genGenericShift
	ADDLW	0x01
;; >>> /home/sdcc-builder/build/sdcc-build/orig/sdcc/src/pic14/gen.c:5502:genGenericShift
	BTFSS	STATUS,0
;; >>> /home/sdcc-builder/build/sdcc-build/orig/sdcc/src/pic14/gen.c:5503:genGenericShift
;; ***	popGetLabel  key=14, label offset 8
	GOTO	_00122_DS_
;;; /home/sdcc-builder/build/sdcc-build/orig/sdcc/src/pic14/gen.c:2316:resultRemat *{*
;;; /home/sdcc-builder/build/sdcc-build/orig/sdcc/src/pic14/gen.c:1609:genCpl *{*
;; ***	genCpl  1611
;;	694 register type nRegs=1
;;	694 register type nRegs=1
;; >>> /home/sdcc-builder/build/sdcc-build/orig/sdcc/src/pic14/gen.c:1631:genCpl
;;	1109 rIdx = r0x104C 
_00123_DS_
	BANKSEL	r0x100A
	COMF	r0x100A,W
;; >>> /home/sdcc-builder/build/sdcc-build/orig/sdcc/src/pic14/gen.c:1632:genCpl
;;	1109 rIdx = r0x104E 
	MOVWF	r0x100C
;; ***	addSign  861
;;; /home/sdcc-builder/build/sdcc-build/orig/sdcc/src/pic14/genarith.c:862:addSign *{*
;;; /home/sdcc-builder/build/sdcc-build/orig/sdcc/src/pic14/gen.c:2316:resultRemat *{*
;;; /home/sdcc-builder/build/sdcc-build/orig/sdcc/src/pic14/gen.c:3919:genAnd *{*
;; ***	genAnd  3920
;; ***	aopForSym 315
;;	327 sym->rname = _PORTD, size = 1
;;	694 register type nRegs=1
;;	694 register type nRegs=1
;; 	line = 3955 result AOP_REG=r0x104E, size=1, left AOP_REG=r0x104E, size=1, right AOP_DIR=_PORTD, size=1
;; >>> /home/sdcc-builder/build/sdcc-build/orig/sdcc/src/pic14/gen.c:4137:genAnd
;;	1009
;;	1028  _PORTD   offset=0
	BANKSEL	_PORTD
	MOVF	_PORTD,W
;; >>> /home/sdcc-builder/build/sdcc-build/orig/sdcc/src/pic14/gen.c:4138:genAnd
;;	1109 rIdx = r0x104E 
	BANKSEL	r0x100C
	ANDWF	r0x100C,F
;;; /home/sdcc-builder/build/sdcc-build/orig/sdcc/src/pic14/gen.c:2316:resultRemat *{*
;;; /home/sdcc-builder/build/sdcc-build/orig/sdcc/src/pic14/gen.c:4220:genOr *{*
;; ***	genOr  4221
;;	694 register type nRegs=1
;;	694 register type nRegs=1
;; ***	aopForSym 315
;;	327 sym->rname = _PORTD, size = 1
;; 	line = 4227 result AOP_DIR=_PORTD, size=1, left AOP_REG=r0x104E, size=1, right AOP_REG=r0x104C, size=1
;; 	line = 4253 result AOP_DIR=_PORTD, size=1, left AOP_REG=r0x104E, size=1, right AOP_REG=r0x104C, size=1
;; >>> /home/sdcc-builder/build/sdcc-build/orig/sdcc/src/pic14/gen.c:4479:genOr
;;	1109 rIdx = r0x104C 
	MOVF	r0x100A,W
;; >>> /home/sdcc-builder/build/sdcc-build/orig/sdcc/src/pic14/gen.c:4480:genOr
;;	1109 rIdx = r0x104E 
	IORWF	r0x100C,W
;; >>> /home/sdcc-builder/build/sdcc-build/orig/sdcc/src/pic14/gen.c:4481:genOr
;;	1009
;;	1028  _PORTD   offset=0
	BANKSEL	_PORTD
	MOVWF	_PORTD
;;; /home/sdcc-builder/build/sdcc-build/orig/sdcc/src/pic14/gen.c:2316:resultRemat *{*
;; ***	genPlus  611
;;; /home/sdcc-builder/build/sdcc-build/orig/sdcc/src/pic14/genarith.c:612:genPlus *{*
;; ***	aopForSym 315
;;	327 sym->rname = _SSD_Update_speed_1_11, size = 1
;;	575
;; 	line = 618 result AOP_DIR=_SSD_Update_speed_1_11, size=1, left AOP_DIR=_SSD_Update_speed_1_11, size=1, right AOP_LIT=0x01, size=1
;;; /home/sdcc-builder/build/sdcc-build/orig/sdcc/src/pic14/genarith.c:142:genPlusIncr *{*
;; ***	genPlusIncr  144
;; 	result AOP_DIR, left AOP_DIR, right AOP_LIT
;; 	genPlusIncr  156
;; >>> /home/sdcc-builder/build/sdcc-build/orig/sdcc/src/pic14/genarith.c:168:genPlusIncr
;;	1009
;;	1028  _SSD_Update_speed_1_11   offset=0
	.line	46; "ssd.c"	speed += 1;
	BANKSEL	_SSD_Update_speed_1_11
	INCF	_SSD_Update_speed_1_11,F
;;; /home/sdcc-builder/build/sdcc-build/orig/sdcc/src/pic14/gen.c:2316:resultRemat *{*
;;; /home/sdcc-builder/build/sdcc-build/orig/sdcc/src/pic14/gen.c:3547:genCmpGt *{*
;; ***	genCmpGt  3548
;; ***	aopForSym 315
;;	327 sym->rname = _SSD_Update_speed_1_11, size = 1
;;; /home/sdcc-builder/build/sdcc-build/orig/sdcc/src/pic14/gen.c:3294:genCmp *{*
;;swapping arguments (AOP_TYPEs 1/3)
;;unsigned compare: left >= lit(0x3=3), size=1
;; >>> /home/sdcc-builder/build/sdcc-build/orig/sdcc/src/pic14/gen.c:3265:pic14_mov2w_regOrLit
	.line	48; "ssd.c"	if(speed > max){
	MOVLW	0x03
;; >>> /home/sdcc-builder/build/sdcc-build/orig/sdcc/src/pic14/gen.c:3432:genCmp
;;	1009
;;	1028  _SSD_Update_speed_1_11   offset=0
	.line	49; "ssd.c"	speed = min;
	SUBWF	_SSD_Update_speed_1_11,W
	BTFSC	STATUS,0
	CLRF	_SSD_Update_speed_1_11
_00113_DS_
	RETURN	

;***
;  pBlock Stats: dbName = C
;***
;entry:  _SSD_Init	;Function start
; 2 exit points
;has an exit
;1 compiler assigned register :
;   r0x100D
;; Starting pCode block
;;; /home/sdcc-builder/build/sdcc-build/orig/sdcc/src/pic14/gen.c:2316:resultRemat *{*
;;; /home/sdcc-builder/build/sdcc-build/orig/sdcc/src/pic14/gen.c:2760:genLabel *{*
;; ***	genLabel  2763
;;; /home/sdcc-builder/build/sdcc-build/orig/sdcc/src/pic14/gen.c:2316:resultRemat *{*
;;; /home/sdcc-builder/build/sdcc-build/orig/sdcc/src/pic14/gen.c:2340:genFunction *{*
;; ***	genFunction  2342 curr label offset=0previous max_key=0 
_SSD_Init	;Function start
; 2 exit points
;;; /home/sdcc-builder/build/sdcc-build/orig/sdcc/src/pic14/gen.c:2316:resultRemat *{*
;;; /home/sdcc-builder/build/sdcc-build/orig/sdcc/src/pic14/gen.c:6927:genAssign *{*
;; ***	genAssign  6928
;; ***	aopForSym 315
;;	327 sym->rname = _TRISB, size = 1
;; 	line = 6937 result AOP_DIR=_TRISB, size=1, left -=-, size=0, right AOP_LIT=0x00, size=1
;; ***	genAssign  7023
;; >>> /home/sdcc-builder/build/sdcc-build/orig/sdcc/src/pic14/gen.c:7035:genAssign
;;	1009
;;	1028  _TRISB   offset=0
	.line	17; "ssd.c"	GPIO_InitPort(GPIO_PORTB_CONTROL, GPIO_OUT);
	BANKSEL	_TRISB
	CLRF	_TRISB
;;; /home/sdcc-builder/build/sdcc-build/orig/sdcc/src/pic14/gen.c:2316:resultRemat *{*
;;; /home/sdcc-builder/build/sdcc-build/orig/sdcc/src/pic14/gen.c:2316:resultRemat *{*
;;; /home/sdcc-builder/build/sdcc-build/orig/sdcc/src/pic14/gen.c:2316:resultRemat *{*
;;; /home/sdcc-builder/build/sdcc-build/orig/sdcc/src/pic14/gen.c:6162:genPointerGet *{*
;; ***	genPointerGet  6163
;;; /home/sdcc-builder/build/sdcc-build/orig/sdcc/src/pic14/gen.c:5944:genNearPointerGet *{*
;; ***	genNearPointerGet  5945
;;	613
;;	aopForRemat 392
;;	418: rname _ssd_Symbols, val 3, const = 0
;;; /home/sdcc-builder/build/sdcc-build/orig/sdcc/src/pic14/gen.c:5898:genDataPointerGet *{*
;; ***	genDataPointerGet  5899
;; ***	aopForSym 315
;;	327 sym->rname = _PORTB, size = 1
;;	833: aopGet AOP_PCODE type PO_IMMEDIATE
;;	_ssd_Symbols offset 3
;; 	line = 5911 result AOP_DIR=_PORTB, size=1, left AOP_PCODE=(_ssd_Symbols+3), size=2, right -=-, size=0
;; >>> /home/sdcc-builder/build/sdcc-build/orig/sdcc/src/pic14/gen.c:5922:genDataPointerGet
;;	popGet AOP_PCODE (PO_IMMEDIATE + 0) 1130 _ssd_Symbols
	.line	18; "ssd.c"	GPIO_WritePort(GPIO_PORTB_DATA, ssd_Symbols[null]);
	BANKSEL	_ssd_Symbols
	MOVF	(_ssd_Symbols + 3),W
;; >>> /home/sdcc-builder/build/sdcc-build/orig/sdcc/src/pic14/gen.c:5923:genDataPointerGet
;;	1009
;;	1028  _PORTB   offset=0
	BANKSEL	_PORTB
	MOVWF	_PORTB
;;; /home/sdcc-builder/build/sdcc-build/orig/sdcc/src/pic14/gen.c:2316:resultRemat *{*
;;; /home/sdcc-builder/build/sdcc-build/orig/sdcc/src/pic14/gen.c:7120:genCast *{*
;; ***	genCast  7121
;; ***	aopForSym 315
;;	327 sym->rname = _TRISD, size = 1
;;	694 register type nRegs=1
;; 	line = 7129 result AOP_REG=r0x1048, size=1, left -=-, size=0, right AOP_DIR=_TRISD, size=1
;; ***	genCast  7253
;; >>> /home/sdcc-builder/build/sdcc-build/orig/sdcc/src/pic14/gen.c:7277:genCast
;;	1009
;;	1028  _TRISD   offset=0
	.line	19; "ssd.c"	GPIO_InitPortPin(GPIO_PORTD_CONTROL, GPIO_PIN_0, GPIO_OUT);
	BANKSEL	_TRISD
	MOVF	_TRISD,W
;; >>> /home/sdcc-builder/build/sdcc-build/orig/sdcc/src/pic14/gen.c:7278:genCast
;;	1109 rIdx = r0x1048 
	BANKSEL	r0x100D
	MOVWF	r0x100D
;;; /home/sdcc-builder/build/sdcc-build/orig/sdcc/src/pic14/gen.c:2316:resultRemat *{*
;;; /home/sdcc-builder/build/sdcc-build/orig/sdcc/src/pic14/gen.c:3919:genAnd *{*
;; ***	genAnd  3920
;;	694 register type nRegs=1
;; ***	aopForSym 315
;;	327 sym->rname = _TRISD, size = 1
;; 	line = 3955 result AOP_DIR=_TRISD, size=1, left AOP_REG=r0x1048, size=1, right AOP_LIT=0xfe, size=1
;; >>> /home/sdcc-builder/build/sdcc-build/orig/sdcc/src/pic14/gen.c:4190:genAnd
	MOVLW	0xfe
;; >>> /home/sdcc-builder/build/sdcc-build/orig/sdcc/src/pic14/gen.c:4191:genAnd
;;	1109 rIdx = r0x1048 
	ANDWF	r0x100D,W
;; >>> /home/sdcc-builder/build/sdcc-build/orig/sdcc/src/pic14/gen.c:4192:genAnd
;;	1009
;;	1028  _TRISD   offset=0
	BANKSEL	_TRISD
	MOVWF	_TRISD
;;; /home/sdcc-builder/build/sdcc-build/orig/sdcc/src/pic14/gen.c:2316:resultRemat *{*
;;; /home/sdcc-builder/build/sdcc-build/orig/sdcc/src/pic14/gen.c:7120:genCast *{*
;; ***	genCast  7121
;; ***	aopForSym 315
;;	327 sym->rname = _TRISD, size = 1
;;	694 register type nRegs=1
;; 	line = 7129 result AOP_REG=r0x1048, size=1, left -=-, size=0, right AOP_DIR=_TRISD, size=1
;; ***	genCast  7253
;; >>> /home/sdcc-builder/build/sdcc-build/orig/sdcc/src/pic14/gen.c:7277:genCast
;;	1009
;;	1028  _TRISD   offset=0
	.line	20; "ssd.c"	GPIO_InitPortPin(GPIO_PORTD_CONTROL, GPIO_PIN_1, GPIO_OUT);
	MOVF	_TRISD,W
;; >>> /home/sdcc-builder/build/sdcc-build/orig/sdcc/src/pic14/gen.c:7278:genCast
;;	1109 rIdx = r0x1048 
	BANKSEL	r0x100D
	MOVWF	r0x100D
;;; /home/sdcc-builder/build/sdcc-build/orig/sdcc/src/pic14/gen.c:2316:resultRemat *{*
;;; /home/sdcc-builder/build/sdcc-build/orig/sdcc/src/pic14/gen.c:3919:genAnd *{*
;; ***	genAnd  3920
;;	694 register type nRegs=1
;; ***	aopForSym 315
;;	327 sym->rname = _TRISD, size = 1
;; 	line = 3955 result AOP_DIR=_TRISD, size=1, left AOP_REG=r0x1048, size=1, right AOP_LIT=0xfd, size=1
;; >>> /home/sdcc-builder/build/sdcc-build/orig/sdcc/src/pic14/gen.c:4190:genAnd
	MOVLW	0xfd
;; >>> /home/sdcc-builder/build/sdcc-build/orig/sdcc/src/pic14/gen.c:4191:genAnd
;;	1109 rIdx = r0x1048 
	ANDWF	r0x100D,W
;; >>> /home/sdcc-builder/build/sdcc-build/orig/sdcc/src/pic14/gen.c:4192:genAnd
;;	1009
;;	1028  _TRISD   offset=0
	BANKSEL	_TRISD
	MOVWF	_TRISD
;;; /home/sdcc-builder/build/sdcc-build/orig/sdcc/src/pic14/gen.c:2316:resultRemat *{*
;;; /home/sdcc-builder/build/sdcc-build/orig/sdcc/src/pic14/gen.c:7120:genCast *{*
;; ***	genCast  7121
;; ***	aopForSym 315
;;	327 sym->rname = _TRISD, size = 1
;;	694 register type nRegs=1
;; 	line = 7129 result AOP_REG=r0x1048, size=1, left -=-, size=0, right AOP_DIR=_TRISD, size=1
;; ***	genCast  7253
;; >>> /home/sdcc-builder/build/sdcc-build/orig/sdcc/src/pic14/gen.c:7277:genCast
;;	1009
;;	1028  _TRISD   offset=0
	.line	21; "ssd.c"	GPIO_InitPortPin(GPIO_PORTD_CONTROL, GPIO_PIN_2, GPIO_OUT);
	MOVF	_TRISD,W
;; >>> /home/sdcc-builder/build/sdcc-build/orig/sdcc/src/pic14/gen.c:7278:genCast
;;	1109 rIdx = r0x1048 
	BANKSEL	r0x100D
	MOVWF	r0x100D
;;; /home/sdcc-builder/build/sdcc-build/orig/sdcc/src/pic14/gen.c:2316:resultRemat *{*
;;; /home/sdcc-builder/build/sdcc-build/orig/sdcc/src/pic14/gen.c:3919:genAnd *{*
;; ***	genAnd  3920
;;	694 register type nRegs=1
;; ***	aopForSym 315
;;	327 sym->rname = _TRISD, size = 1
;; 	line = 3955 result AOP_DIR=_TRISD, size=1, left AOP_REG=r0x1048, size=1, right AOP_LIT=0xfb, size=1
;; >>> /home/sdcc-builder/build/sdcc-build/orig/sdcc/src/pic14/gen.c:4190:genAnd
	MOVLW	0xfb
;; >>> /home/sdcc-builder/build/sdcc-build/orig/sdcc/src/pic14/gen.c:4191:genAnd
;;	1109 rIdx = r0x1048 
	ANDWF	r0x100D,W
;; >>> /home/sdcc-builder/build/sdcc-build/orig/sdcc/src/pic14/gen.c:4192:genAnd
;;	1009
;;	1028  _TRISD   offset=0
	BANKSEL	_TRISD
	MOVWF	_TRISD
;;; /home/sdcc-builder/build/sdcc-build/orig/sdcc/src/pic14/gen.c:2316:resultRemat *{*
;;; /home/sdcc-builder/build/sdcc-build/orig/sdcc/src/pic14/gen.c:2760:genLabel *{*
;; ***	genLabel  2763
;;; /home/sdcc-builder/build/sdcc-build/orig/sdcc/src/pic14/gen.c:2316:resultRemat *{*
;;; /home/sdcc-builder/build/sdcc-build/orig/sdcc/src/pic14/gen.c:2528:genEndFunction *{*
;; ***	genEndFunction  2530
	RETURN	
; exit point of _SSD_Init
;;; /home/sdcc-builder/build/sdcc-build/orig/sdcc/src/pic14/gen.c:7426:genpic14Code *{*


;	code size estimation:
;	  121+   42 =   163 instructions (  410 byte)

	end
